target datalayout = "e-m:e-p270:32:32-p271:32:32-p272:64:64-i64:64-i128:128-f80:128-n8:16:32:64-S128"
target triple = "x86_64-pc-linux-gnu"

%struct.MergeStmt = type { i32, ptr, ptr, ptr, ptr, ptr, ptr, i32, i32 }

; Function Attrs: nounwind uwtable
define internal void @_jumbleMergeStmt(ptr noundef %0, ptr noundef %1) #0 {
  %3 = alloca ptr, align 8
  %4 = alloca ptr, align 8
  %5 = alloca ptr, align 8
  store ptr %0, ptr %3, align 8
  store ptr %1, ptr %4, align 8
  call void @llvm.lifetime.start.p0(i64 8, ptr %5) #8
  %6 = load ptr, ptr %4, align 8
  store ptr %6, ptr %5, align 8
  %7 = load ptr, ptr %3, align 8
  %8 = load ptr, ptr %5, align 8
  %9 = getelementptr inbounds nuw %struct.MergeStmt, ptr %8, i32 0, i32 1
  %10 = load ptr, ptr %9, align 8
  call void @_jumbleNode(ptr noundef %7, ptr noundef %10)
  %11 = load ptr, ptr %3, align 8
  %12 = load ptr, ptr %5, align 8
  %13 = getelementptr inbounds nuw %struct.MergeStmt, ptr %12, i32 0, i32 2
  %14 = load ptr, ptr %13, align 8
  call void @_jumbleNode(ptr noundef %11, ptr noundef %14)
  %15 = load ptr, ptr %3, align 8
  %16 = load ptr, ptr %5, align 8
  %17 = getelementptr inbounds nuw %struct.MergeStmt, ptr %16, i32 0, i32 3
  %18 = load ptr, ptr %17, align 8
  call void @_jumbleNode(ptr noundef %15, ptr noundef %18)
  %19 = load ptr, ptr %3, align 8
  %20 = load ptr, ptr %5, align 8
  %21 = getelementptr inbounds nuw %struct.MergeStmt, ptr %20, i32 0, i32 4
  %22 = load ptr, ptr %21, align 8
  call void @_jumbleNode(ptr noundef %19, ptr noundef %22)
  %23 = load ptr, ptr %3, align 8
  %24 = load ptr, ptr %5, align 8
  %25 = getelementptr inbounds nuw %struct.MergeStmt, ptr %24, i32 0, i32 5
  %26 = load ptr, ptr %25, align 8
  call void @_jumbleNode(ptr noundef %23, ptr noundef %26)
  %27 = load ptr, ptr %3, align 8
  %28 = load ptr, ptr %5, align 8
  %29 = getelementptr inbounds nuw %struct.MergeStmt, ptr %28, i32 0, i32 6
  %30 = load ptr, ptr %29, align 8
  call void @_jumbleNode(ptr noundef %27, ptr noundef %30)
  call void @llvm.lifetime.end.p0(i64 8, ptr %5) #8
  ret void
}