; Function Attrs: nounwind uwtable
define internal fastcc void @_jumbleMergeStmt(ptr noundef %0, ptr noundef nonnull readonly captures(none) %1) unnamed_addr #0 {
  %3 = getelementptr inbounds nuw i8, ptr %1, i64 8
  %4 = load ptr, ptr %3, align 8
  tail call fastcc void @_jumbleNode(ptr noundef %0, ptr noundef %4)
  %5 = getelementptr inbounds nuw i8, ptr %1, i64 16
  %6 = load ptr, ptr %5, align 8
  tail call fastcc void @_jumbleNode(ptr noundef %0, ptr noundef %6)
  %7 = getelementptr inbounds nuw i8, ptr %1, i64 24
  %8 = load ptr, ptr %7, align 8
  tail call fastcc void @_jumbleNode(ptr noundef %0, ptr noundef %8)
  %9 = getelementptr inbounds nuw i8, ptr %1, i64 32
  %10 = load ptr, ptr %9, align 8
  tail call fastcc void @_jumbleNode(ptr noundef %0, ptr noundef %10)
  %11 = getelementptr inbounds nuw i8, ptr %1, i64 40
  %12 = load ptr, ptr %11, align 8
  tail call fastcc void @_jumbleNode(ptr noundef %0, ptr noundef %12)
  %13 = getelementptr inbounds nuw i8, ptr %1, i64 48
  %14 = load ptr, ptr %13, align 8
  tail call fastcc void @_jumbleNode(ptr noundef %0, ptr noundef %14)
  ret void
}